target datalayout = "e-m:e-p270:32:32-p271:32:32-p272:64:64-i64:64-i128:128-f80:128-n8:16:32:64-S128"
target triple = "x86_64-pc-linux-gnu"

%struct.xlist = type { i32, i32, ptr, ptr, ptr, ptr, %union.pthread_rwlock_t, ptr, ptr, [0 x %struct.listNode] }
%union.pthread_rwlock_t = type { %struct.__pthread_rwlock_arch_t }
%struct.__pthread_rwlock_arch_t = type { i32, i32, i32, i32, i32, i32, i32, i32, i8, [7 x i8], i64, i32 }
%struct.listNode = type { ptr, ptr }
%struct.listIterator = type { i32, ptr, ptr, ptr, ptr }

@.str.2 = private unnamed_addr constant [32 x i8] c"%s: pthread_rwlock_wrlock(): %m\00", align 1
@__func__.list_destroy = private unnamed_addr constant [13 x i8] c"list_destroy\00", align 1
@.str.3 = private unnamed_addr constant [32 x i8] c"%s: pthread_rwlock_unlock(): %m\00", align 1
@.str.4 = private unnamed_addr constant [33 x i8] c"%s: pthread_rwlock_destroy(): %m\00", align 1

; Function Attrs: nounwind uwtable
define dso_local void @list_destroy(ptr noundef %0) #0 {
  %2 = alloca ptr, align 8
  %3 = alloca ptr, align 8
  %4 = alloca ptr, align 8
  %5 = alloca ptr, align 8
  %6 = alloca ptr, align 8
  %7 = alloca i32, align 4
  %8 = alloca i32, align 4
  %9 = alloca i32, align 4
  store ptr %0, ptr %2, align 8
  call void @llvm.lifetime.start.p0(i64 8, ptr %3) #6
  call void @llvm.lifetime.start.p0(i64 8, ptr %4) #6
  call void @llvm.lifetime.start.p0(i64 8, ptr %5) #6
  call void @llvm.lifetime.start.p0(i64 8, ptr %6) #6
  br label %10

10:                                               ; preds = %1
  call void @llvm.lifetime.start.p0(i64 4, ptr %7) #6
  %11 = load ptr, ptr %2, align 8
  %12 = getelementptr inbounds nuw %struct.xlist, ptr %11, i32 0, i32 6
  %13 = call i32 @pthread_rwlock_wrlock(ptr noundef %12) #6
  store i32 %13, ptr %7, align 4
  %14 = load i32, ptr %7, align 4
  %15 = icmp ne i32 %14, 0
  br i1 %15, label %16, label %19

16:                                               ; preds = %10
  %17 = load i32, ptr %7, align 4
  %18 = call ptr @__errno_location() #7
  store i32 %17, ptr %18, align 4
  call void (ptr, ...) @fatal_abort(ptr noundef @.str.2, ptr noundef @__func__.list_destroy) #8
  unreachable

19:                                               ; preds = %10
  call void @llvm.lifetime.end.p0(i64 4, ptr %7) #6
  br label %20

20:                                               ; preds = %19
  br label %21

21:                                               ; preds = %20
  %22 = load ptr, ptr %2, align 8
  %23 = getelementptr inbounds nuw %struct.xlist, ptr %22, i32 0, i32 4
  %24 = load ptr, ptr %23, align 8
  store ptr %24, ptr %3, align 8
  br label %25

25:                                               ; preds = %28, %21
  %26 = load ptr, ptr %3, align 8
  %27 = icmp ne ptr %26, null
  br i1 %27, label %28, label %35

28:                                               ; preds = %25
  %29 = load ptr, ptr %3, align 8
  %30 = getelementptr inbounds nuw %struct.listIterator, ptr %29, i32 0, i32 0
  store i32 559038720, ptr %30, align 8
  %31 = load ptr, ptr %3, align 8
  %32 = getelementptr inbounds nuw %struct.listIterator, ptr %31, i32 0, i32 4
  %33 = load ptr, ptr %32, align 8
  store ptr %33, ptr %4, align 8
  call void @slurm_xfree(ptr noundef %3)
  %34 = load ptr, ptr %4, align 8
  store ptr %34, ptr %3, align 8
  br label %25, !llvm.loop !11

35:                                               ; preds = %25
  %36 = load ptr, ptr %2, align 8
  %37 = getelementptr inbounds nuw %struct.xlist, ptr %36, i32 0, i32 2
  %38 = load ptr, ptr %37, align 8
  store ptr %38, ptr %5, align 8
  br label %39

39:                                               ; preds = %59, %35
  %40 = load ptr, ptr %5, align 8
  %41 = icmp ne ptr %40, null
  br i1 %41, label %42, label %63

42:                                               ; preds = %39
  %43 = load ptr, ptr %5, align 8
  %44 = getelementptr inbounds nuw %struct.listNode, ptr %43, i32 0, i32 0
  %45 = load ptr, ptr %44, align 8
  %46 = icmp ne ptr %45, null
  br i1 %46, label %47, label %59

47:                                               ; preds = %42
  %48 = load ptr, ptr %2, align 8
  %49 = getelementptr inbounds nuw %struct.xlist, ptr %48, i32 0, i32 5
  %50 = load ptr, ptr %49, align 8
  %51 = icmp ne ptr %50, null
  br i1 %51, label %52, label %59

52:                                               ; preds = %47
  %53 = load ptr, ptr %2, align 8
  %54 = getelementptr inbounds nuw %struct.xlist, ptr %53, i32 0, i32 5
  %55 = load ptr, ptr %54, align 8
  %56 = load ptr, ptr %5, align 8
  %57 = getelementptr inbounds nuw %struct.listNode, ptr %56, i32 0, i32 0
  %58 = load ptr, ptr %57, align 8
  call void %55(ptr noundef %58)
  br label %59

59:                                               ; preds = %52, %47, %42
  %60 = load ptr, ptr %5, align 8
  %61 = getelementptr inbounds nuw %struct.listNode, ptr %60, i32 0, i32 1
  %62 = load ptr, ptr %61, align 8
  store ptr %62, ptr %5, align 8
  br label %39, !llvm.loop !12

63:                                               ; preds = %39
  %64 = load ptr, ptr %2, align 8
  %65 = getelementptr inbounds nuw %struct.xlist, ptr %64, i32 0, i32 8
  %66 = load ptr, ptr %65, align 8
  store ptr %66, ptr %5, align 8
  br label %67

67:                                               ; preds = %70, %63
  %68 = load ptr, ptr %5, align 8
  %69 = icmp ne ptr %68, null
  br i1 %69, label %70, label %75

70:                                               ; preds = %67
  %71 = load ptr, ptr %5, align 8
  %72 = getelementptr inbounds nuw %struct.listNode, ptr %71, i32 0, i32 1
  %73 = load ptr, ptr %72, align 8
  store ptr %73, ptr %6, align 8
  call void @slurm_xfree(ptr noundef %5)
  %74 = load ptr, ptr %6, align 8
  store ptr %74, ptr %5, align 8
  br label %67, !llvm.loop !13

75:                                               ; preds = %67
  %76 = load ptr, ptr %2, align 8
  %77 = getelementptr inbounds nuw %struct.xlist, ptr %76, i32 0, i32 0
  store i32 559038736, ptr %77, align 8
  br label %78

78:                                               ; preds = %75
  call void @llvm.lifetime.start.p0(i64 4, ptr %8) #6
  %79 = load ptr, ptr %2, align 8
  %80 = getelementptr inbounds nuw %struct.xlist, ptr %79, i32 0, i32 6
  %81 = call i32 @pthread_rwlock_unlock(ptr noundef %80) #6
  store i32 %81, ptr %8, align 4
  %82 = load i32, ptr %8, align 4
  %83 = icmp ne i32 %82, 0
  br i1 %83, label %84, label %87

84:                                               ; preds = %78
  %85 = load i32, ptr %8, align 4
  %86 = call ptr @__errno_location() #7
  store i32 %85, ptr %86, align 4
  call void (ptr, ...) @fatal_abort(ptr noundef @.str.3, ptr noundef @__func__.list_destroy) #8
  unreachable

87:                                               ; preds = %78
  call void @llvm.lifetime.end.p0(i64 4, ptr %8) #6
  br label %88

88:                                               ; preds = %87
  br label %89

89:                                               ; preds = %88
  br label %90

90:                                               ; preds = %89
  call void @llvm.lifetime.start.p0(i64 4, ptr %9) #6
  %91 = load ptr, ptr %2, align 8
  %92 = getelementptr inbounds nuw %struct.xlist, ptr %91, i32 0, i32 6
  %93 = call i32 @pthread_rwlock_destroy(ptr noundef %92) #6
  store i32 %93, ptr %9, align 4
  %94 = load i32, ptr %9, align 4
  %95 = icmp ne i32 %94, 0
  br i1 %95, label %96, label %99

96:                                               ; preds = %90
  %97 = load i32, ptr %9, align 4
  %98 = call ptr @__errno_location() #7
  store i32 %97, ptr %98, align 4
  call void (ptr, ...) @fatal_abort(ptr noundef @.str.4, ptr noundef @__func__.list_destroy) #8
  unreachable

99:                                               ; preds = %90
  call void @llvm.lifetime.end.p0(i64 4, ptr %9) #6
  br label %100

100:                                              ; preds = %99
  br label %101

101:                                              ; preds = %100
  call void @slurm_xfree(ptr noundef %2)
  call void @llvm.lifetime.end.p0(i64 8, ptr %6) #6
  call void @llvm.lifetime.end.p0(i64 8, ptr %5) #6
  call void @llvm.lifetime.end.p0(i64 8, ptr %4) #6
  call void @llvm.lifetime.end.p0(i64 8, ptr %3) #6
  ret void
}