; Function Attrs: nounwind uwtable
define dso_local void @list_destroy(ptr noundef %0) #0 {
  %2 = alloca ptr, align 8
  %3 = alloca ptr, align 8
  %4 = alloca ptr, align 8
  store ptr %0, ptr %2, align 8
  call void @llvm.lifetime.start.p0(i64 8, ptr nonnull %3) #9
  call void @llvm.lifetime.start.p0(i64 8, ptr nonnull %4) #9
  %5 = getelementptr inbounds nuw i8, ptr %0, i64 40
  %6 = tail call i32 @pthread_rwlock_wrlock(ptr noundef nonnull %5) #9
  %.not = icmp eq i32 %6, 0
  br i1 %.not, label %9, label %7

7:                                                ; preds = %1
  %8 = tail call ptr @__errno_location() #10
  store i32 %6, ptr %8, align 4
  tail call void (ptr, ...) @fatal_abort(ptr noundef nonnull @.str.2, ptr noundef nonnull @__func__.list_destroy) #11
  unreachable

9:                                                ; preds = %1
  %10 = getelementptr inbounds nuw i8, ptr %0, i64 24
  %11 = load ptr, ptr %10, align 8
  store ptr %11, ptr %3, align 8
  %.not1423 = icmp eq ptr %11, null
  br i1 %.not1423, label %.preheader, label %.lr.ph

.preheader:                                       ; preds = %.lr.ph, %9
  %storemerge15.in26 = getelementptr inbounds nuw i8, ptr %0, i64 8
  %storemerge1527 = load ptr, ptr %storemerge15.in26, align 8
  %.not1628 = icmp eq ptr %storemerge1527, null
  br i1 %.not1628, label %._crit_edge, label %.lr.ph30.preheader

.lr.ph30.preheader:                               ; preds = %.preheader
  %12 = getelementptr inbounds nuw i8, ptr %0, i64 32
  br label %.lr.ph30

.lr.ph:                                           ; preds = %9, %.lr.ph
  %storemerge24 = phi ptr [ %15, %.lr.ph ], [ %11, %9 ]
  store i32 559038720, ptr %storemerge24, align 8
  %13 = load ptr, ptr %3, align 8
  %14 = getelementptr inbounds nuw i8, ptr %13, i64 32
  %15 = load ptr, ptr %14, align 8
  call void @slurm_xfree(ptr noundef nonnull %3) #9
  store ptr %15, ptr %3, align 8
  %.not14 = icmp eq ptr %15, null
  br i1 %.not14, label %.preheader, label %.lr.ph, !llvm.loop !11

.lr.ph30:                                         ; preds = %.lr.ph30.preheader, %20
  %.pn = phi ptr [ %storemerge15, %20 ], [ %storemerge1527, %.lr.ph30.preheader ]
  %16 = load ptr, ptr %.pn, align 8
  %.not21 = icmp eq ptr %16, null
  br i1 %.not21, label %20, label %17

17:                                               ; preds = %.lr.ph30
  %18 = load ptr, ptr %12, align 8
  %.not22 = icmp eq ptr %18, null
  br i1 %.not22, label %20, label %19

19:                                               ; preds = %17
  call void %18(ptr noundef nonnull %16) #9
  br label %20

20:                                               ; preds = %19, %17, %.lr.ph30
  %storemerge15.in = getelementptr inbounds nuw i8, ptr %.pn, i64 8
  %storemerge15 = load ptr, ptr %storemerge15.in, align 8
  %.not16 = icmp eq ptr %storemerge15, null
  br i1 %.not16, label %._crit_edge, label %.lr.ph30, !llvm.loop !12

._crit_edge:                                      ; preds = %20, %.preheader
  %21 = getelementptr inbounds nuw i8, ptr %0, i64 104
  %22 = load ptr, ptr %21, align 8
  store ptr %22, ptr %4, align 8
  %.not1831 = icmp eq ptr %22, null
  br i1 %.not1831, label %._crit_edge35, label %.lr.ph34

.lr.ph34:                                         ; preds = %._crit_edge, %.lr.ph34
  %storemerge1732 = phi ptr [ %24, %.lr.ph34 ], [ %22, %._crit_edge ]
  %23 = getelementptr inbounds nuw i8, ptr %storemerge1732, i64 8
  %24 = load ptr, ptr %23, align 8
  call void @slurm_xfree(ptr noundef nonnull %4) #9
  store ptr %24, ptr %4, align 8
  %.not18 = icmp eq ptr %24, null
  br i1 %.not18, label %._crit_edge35, label %.lr.ph34, !llvm.loop !13

._crit_edge35:                                    ; preds = %.lr.ph34, %._crit_edge
  store i32 559038736, ptr %0, align 8
  %25 = call i32 @pthread_rwlock_unlock(ptr noundef nonnull %5) #9
  %.not19 = icmp eq i32 %25, 0
  br i1 %.not19, label %28, label %26

26:                                               ; preds = %._crit_edge35
  %27 = tail call ptr @__errno_location() #10
  store i32 %25, ptr %27, align 4
  call void (ptr, ...) @fatal_abort(ptr noundef nonnull @.str.3, ptr noundef nonnull @__func__.list_destroy) #11
  unreachable

28:                                               ; preds = %._crit_edge35
  %29 = call i32 @pthread_rwlock_destroy(ptr noundef nonnull %5) #9
  %.not20 = icmp eq i32 %29, 0
  br i1 %.not20, label %32, label %30

30:                                               ; preds = %28
  %31 = tail call ptr @__errno_location() #10
  store i32 %29, ptr %31, align 4
  call void (ptr, ...) @fatal_abort(ptr noundef nonnull @.str.4, ptr noundef nonnull @__func__.list_destroy) #11
  unreachable

32:                                               ; preds = %28
  call void @slurm_xfree(ptr noundef nonnull %2) #9
  call void @llvm.lifetime.end.p0(i64 8, ptr nonnull %4) #9
  call void @llvm.lifetime.end.p0(i64 8, ptr nonnull %3) #9
  ret void
}